target datalayout = "e-m:e-p270:32:32-p271:32:32-p272:64:64-i64:64-i128:128-f80:128-n8:16:32:64-S128"
target triple = "x86_64-pc-linux-gnu"

; Function Attrs: mustprogress uwtable
define dso_local noundef float @_Z8getAlphafffff(float noundef %0, float noundef %1, float noundef %2, float noundef %3, float noundef %4) #4 {
  %6 = alloca float, align 4
  %7 = alloca float, align 4
  %8 = alloca float, align 4
  %9 = alloca float, align 4
  %10 = alloca float, align 4
  %11 = alloca float, align 4
  %12 = alloca i8, align 1
  %13 = alloca i8, align 1
  %14 = alloca i8, align 1
  %15 = alloca i8, align 1
  %16 = alloca i32, align 4
  store float %0, ptr %7, align 4, !tbaa !24
  store float %1, ptr %8, align 4, !tbaa !24
  store float %2, ptr %9, align 4, !tbaa !24
  store float %3, ptr %10, align 4, !tbaa !24
  store float %4, ptr %11, align 4, !tbaa !24
  call void @llvm.lifetime.start.p0(i64 1, ptr %12) #3
  %17 = load float, ptr %7, align 4, !tbaa !24
  %18 = load float, ptr %7, align 4, !tbaa !24
  %19 = load float, ptr %8, align 4, !tbaa !24
  %20 = load float, ptr %8, align 4, !tbaa !24
  %21 = fmul float %19, %20
  %22 = call float @llvm.fmuladd.f32(float %17, float %18, float %21)
  %23 = load float, ptr %11, align 4, !tbaa !24
  %24 = load float, ptr %11, align 4, !tbaa !24
  %25 = fmul float %23, %24
  %26 = fcmp olt float %22, %25
  %27 = zext i1 %26 to i8
  store i8 %27, ptr %12, align 1, !tbaa !31
  call void @llvm.lifetime.start.p0(i64 1, ptr %13) #3
  %28 = load float, ptr %9, align 4, !tbaa !24
  %29 = load float, ptr %9, align 4, !tbaa !24
  %30 = load float, ptr %8, align 4, !tbaa !24
  %31 = load float, ptr %8, align 4, !tbaa !24
  %32 = fmul float %30, %31
  %33 = call float @llvm.fmuladd.f32(float %28, float %29, float %32)
  %34 = load float, ptr %11, align 4, !tbaa !24
  %35 = load float, ptr %11, align 4, !tbaa !24
  %36 = fmul float %34, %35
  %37 = fcmp olt float %33, %36
  %38 = zext i1 %37 to i8
  store i8 %38, ptr %13, align 1, !tbaa !31
  call void @llvm.lifetime.start.p0(i64 1, ptr %14) #3
  %39 = load float, ptr %7, align 4, !tbaa !24
  %40 = load float, ptr %7, align 4, !tbaa !24
  %41 = load float, ptr %10, align 4, !tbaa !24
  %42 = load float, ptr %10, align 4, !tbaa !24
  %43 = fmul float %41, %42
  %44 = call float @llvm.fmuladd.f32(float %39, float %40, float %43)
  %45 = load float, ptr %11, align 4, !tbaa !24
  %46 = load float, ptr %11, align 4, !tbaa !24
  %47 = fmul float %45, %46
  %48 = fcmp olt float %44, %47
  %49 = zext i1 %48 to i8
  store i8 %49, ptr %14, align 1, !tbaa !31
  call void @llvm.lifetime.start.p0(i64 1, ptr %15) #3
  %50 = load float, ptr %7, align 4, !tbaa !24
  %51 = load float, ptr %7, align 4, !tbaa !24
  %52 = load float, ptr %10, align 4, !tbaa !24
  %53 = load float, ptr %10, align 4, !tbaa !24
  %54 = fmul float %52, %53
  %55 = call float @llvm.fmuladd.f32(float %50, float %51, float %54)
  %56 = load float, ptr %11, align 4, !tbaa !24
  %57 = load float, ptr %11, align 4, !tbaa !24
  %58 = fmul float %56, %57
  %59 = fcmp olt float %55, %58
  %60 = zext i1 %59 to i8
  store i8 %60, ptr %15, align 1, !tbaa !31
  %61 = load i8, ptr %12, align 1, !tbaa !31, !range !35, !noundef !36
  %62 = trunc i8 %61 to i1
  br i1 %62, label %63, label %80

63:                                               ; preds = %5
  %64 = load i8, ptr %13, align 1, !tbaa !31, !range !35, !noundef !36
  %65 = trunc i8 %64 to i1
  br i1 %65, label %66, label %80

66:                                               ; preds = %63
  %67 = load i8, ptr %14, align 1, !tbaa !31, !range !35, !noundef !36
  %68 = trunc i8 %67 to i1
  br i1 %68, label %69, label %80

69:                                               ; preds = %66
  %70 = load i8, ptr %15, align 1, !tbaa !31, !range !35, !noundef !36
  %71 = trunc i8 %70 to i1
  br i1 %71, label %72, label %80

72:                                               ; preds = %69
  %73 = load float, ptr %9, align 4, !tbaa !24
  %74 = load float, ptr %7, align 4, !tbaa !24
  %75 = fsub float %73, %74
  %76 = load float, ptr %10, align 4, !tbaa !24
  %77 = load float, ptr %8, align 4, !tbaa !24
  %78 = fsub float %76, %77
  %79 = fmul float %75, %78
  store float %79, ptr %6, align 4
  store i32 1, ptr %16, align 4
  br label %158

80:                                               ; preds = %69, %66, %63, %5
  %81 = load i8, ptr %12, align 1, !tbaa !31, !range !35, !noundef !36
  %82 = trunc i8 %81 to i1
  br i1 %82, label %93, label %83

83:                                               ; preds = %80
  %84 = load i8, ptr %13, align 1, !tbaa !31, !range !35, !noundef !36
  %85 = trunc i8 %84 to i1
  br i1 %85, label %93, label %86

86:                                               ; preds = %83
  %87 = load i8, ptr %14, align 1, !tbaa !31, !range !35, !noundef !36
  %88 = trunc i8 %87 to i1
  br i1 %88, label %93, label %89

89:                                               ; preds = %86
  %90 = load i8, ptr %15, align 1, !tbaa !31, !range !35, !noundef !36
  %91 = trunc i8 %90 to i1
  br i1 %91, label %93, label %92

92:                                               ; preds = %89
  store float 0.000000e+00, ptr %6, align 4
  store i32 1, ptr %16, align 4
  br label %158

93:                                               ; preds = %89, %86, %83, %80
  %94 = load float, ptr %9, align 4, !tbaa !24
  %95 = load float, ptr %7, align 4, !tbaa !24
  %96 = fsub float %94, %95
  %97 = fpext float %96 to double
  %98 = fcmp olt double %97, 1.000000e-03
  br i1 %98, label %99, label %106

99:                                               ; preds = %93
  %100 = load float, ptr %10, align 4, !tbaa !24
  %101 = load float, ptr %8, align 4, !tbaa !24
  %102 = fsub float %100, %101
  %103 = fpext float %102 to double
  %104 = fcmp olt double %103, 1.000000e-03
  br i1 %104, label %105, label %106

105:                                              ; preds = %99
  store float 0.000000e+00, ptr %6, align 4
  store i32 1, ptr %16, align 4
  br label %158

106:                                              ; preds = %99, %93
  %107 = load float, ptr %7, align 4, !tbaa !24
  %108 = load float, ptr %8, align 4, !tbaa !24
  %109 = load float, ptr %7, align 4, !tbaa !24
  %110 = load float, ptr %9, align 4, !tbaa !24
  %111 = fadd float %109, %110
  %112 = fdiv float %111, 2.000000e+00
  %113 = load float, ptr %8, align 4, !tbaa !24
  %114 = load float, ptr %10, align 4, !tbaa !24
  %115 = fadd float %113, %114
  %116 = fdiv float %115, 2.000000e+00
  %117 = load float, ptr %11, align 4, !tbaa !24
  %118 = call noundef float @_Z8getAlphafffff(float noundef %107, float noundef %108, float noundef %112, float noundef %116, float noundef %117)
  %119 = load float, ptr %7, align 4, !tbaa !24
  %120 = load float, ptr %9, align 4, !tbaa !24
  %121 = fadd float %119, %120
  %122 = fdiv float %121, 2.000000e+00
  %123 = load float, ptr %8, align 4, !tbaa !24
  %124 = load float, ptr %9, align 4, !tbaa !24
  %125 = load float, ptr %8, align 4, !tbaa !24
  %126 = load float, ptr %10, align 4, !tbaa !24
  %127 = fadd float %125, %126
  %128 = fdiv float %127, 2.000000e+00
  %129 = load float, ptr %11, align 4, !tbaa !24
  %130 = call noundef float @_Z8getAlphafffff(float noundef %122, float noundef %123, float noundef %124, float noundef %128, float noundef %129)
  %131 = fadd float %118, %130
  %132 = load float, ptr %7, align 4, !tbaa !24
  %133 = load float, ptr %8, align 4, !tbaa !24
  %134 = load float, ptr %10, align 4, !tbaa !24
  %135 = fadd float %133, %134
  %136 = fdiv float %135, 2.000000e+00
  %137 = load float, ptr %7, align 4, !tbaa !24
  %138 = load float, ptr %9, align 4, !tbaa !24
  %139 = fadd float %137, %138
  %140 = fdiv float %139, 2.000000e+00
  %141 = load float, ptr %10, align 4, !tbaa !24
  %142 = load float, ptr %11, align 4, !tbaa !24
  %143 = call noundef float @_Z8getAlphafffff(float noundef %132, float noundef %136, float noundef %140, float noundef %141, float noundef %142)
  %144 = fadd float %131, %143
  %145 = load float, ptr %7, align 4, !tbaa !24
  %146 = load float, ptr %9, align 4, !tbaa !24
  %147 = fadd float %145, %146
  %148 = fdiv float %147, 2.000000e+00
  %149 = load float, ptr %8, align 4, !tbaa !24
  %150 = load float, ptr %10, align 4, !tbaa !24
  %151 = fadd float %149, %150
  %152 = fdiv float %151, 2.000000e+00
  %153 = load float, ptr %9, align 4, !tbaa !24
  %154 = load float, ptr %10, align 4, !tbaa !24
  %155 = load float, ptr %11, align 4, !tbaa !24
  %156 = call noundef float @_Z8getAlphafffff(float noundef %148, float noundef %152, float noundef %153, float noundef %154, float noundef %155)
  %157 = fadd float %144, %156
  store float %157, ptr %6, align 4
  store i32 1, ptr %16, align 4
  br label %158

158:                                              ; preds = %106, %105, %92, %72
  call void @llvm.lifetime.end.p0(i64 1, ptr %15) #3
  call void @llvm.lifetime.end.p0(i64 1, ptr %14) #3
  call void @llvm.lifetime.end.p0(i64 1, ptr %13) #3
  call void @llvm.lifetime.end.p0(i64 1, ptr %12) #3
  %159 = load float, ptr %6, align 4
  ret float %159
}