; Function Attrs: mustprogress nofree nosync nounwind willreturn memory(none) uwtable
define dso_local noundef float @_Z8getAlphafffff(float noundef %0, float noundef %1, float noundef %2, float noundef %3, float noundef %4) local_unnamed_addr #11 {
  %6 = fmul float %1, %1
  %7 = tail call float @llvm.fmuladd.f32(float %0, float %0, float %6)
  %8 = fmul float %4, %4
  %9 = fcmp olt float %7, %8
  %10 = tail call float @llvm.fmuladd.f32(float %2, float %2, float %6)
  %11 = fcmp olt float %10, %8
  %12 = fmul float %3, %3
  %13 = tail call float @llvm.fmuladd.f32(float %0, float %0, float %12)
  %14 = fcmp olt float %13, %8
  %brmerge.demorgan = and i1 %9, %11
  %brmerge71.demorgan = and i1 %14, %brmerge.demorgan
  br i1 %brmerge71.demorgan, label %15, label %19

15:                                               ; preds = %5
  %16 = fsub float %2, %0
  %17 = fsub float %3, %1
  %18 = fmul float %16, %17
  br label %common.ret74

19:                                               ; preds = %5
  %brmerge72 = or i1 %9, %11
  %brmerge73 = or i1 %14, %brmerge72
  br i1 %brmerge73, label %20, label %common.ret74

20:                                               ; preds = %19
  %21 = fsub float %2, %0
  %22 = fpext float %21 to double
  %23 = fcmp olt double %22, 1.000000e-03
  br i1 %23, label %24, label %28

24:                                               ; preds = %20
  %25 = fsub float %3, %1
  %26 = fpext float %25 to double
  %27 = fcmp olt double %26, 1.000000e-03
  br i1 %27, label %common.ret74, label %28

common.ret74:                                     ; preds = %24, %19, %15, %28
  %common.ret74.op = phi float [ %39, %28 ], [ %18, %15 ], [ 0.000000e+00, %19 ], [ 0.000000e+00, %24 ]
  ret float %common.ret74.op

28:                                               ; preds = %24, %20
  %29 = fadd float %0, %2
  %30 = fmul float %29, 5.000000e-01
  %31 = fadd float %1, %3
  %32 = fmul float %31, 5.000000e-01
  %33 = tail call noundef float @_Z8getAlphafffff(float noundef %0, float noundef %1, float noundef %30, float noundef %32, float noundef %4)
  %34 = tail call noundef float @_Z8getAlphafffff(float noundef %30, float noundef %1, float noundef %2, float noundef %32, float noundef %4)
  %35 = fadd float %33, %34
  %36 = tail call noundef float @_Z8getAlphafffff(float noundef %0, float noundef %32, float noundef %30, float noundef %3, float noundef %4)
  %37 = fadd float %35, %36
  %38 = tail call noundef float @_Z8getAlphafffff(float noundef %30, float noundef %32, float noundef %2, float noundef %3, float noundef %4)
  %39 = fadd float %37, %38
  br label %common.ret74
}